target datalayout = "e-m:e-p270:32:32-p271:32:32-p272:64:64-i64:64-i128:128-f80:128-n8:16:32:64-S128"
target triple = "x86_64-pc-linux-gnu"

%struct.SC_Man_ = type { ptr, ptr, i32, ptr, ptr, ptr, ptr, ptr, ptr, ptr, ptr, ptr, ptr, ptr, ptr, ptr, ptr, ptr, ptr, ptr, float, float, float, i32, ptr, ptr, ptr, ptr, ptr, ptr, ptr, i32, float, float, float, float, float, float, i64, i64, i64, i64, i64, ptr }
%struct.timespec = type { i64, i64 }

@.str.9 = private unnamed_addr constant [5 x i8] c"%4d \00", align 1
@.str.10 = private unnamed_addr constant [10 x i8] c"Win:%3d. \00", align 1
@.str.11 = private unnamed_addr constant [9 x i8] c"PO:%6d. \00", align 1
@.str.12 = private unnamed_addr constant [11 x i8] c"Path:%7d. \00", align 1
@.str.13 = private unnamed_addr constant [11 x i8] c"Gate:%5d. \00", align 1
@.str.14 = private unnamed_addr constant [10 x i8] c"TFO:%7d. \00", align 1
@.str.15 = private unnamed_addr constant [4 x i8] c"A: \00", align 1
@.str.16 = private unnamed_addr constant [6 x i8] c"%.2f \00", align 1
@.str.17 = private unnamed_addr constant [14 x i8] c"(%+5.1f %%)  \00", align 1
@.str.18 = private unnamed_addr constant [4 x i8] c"D: \00", align 1
@.str.19 = private unnamed_addr constant [9 x i8] c"%.2f ps \00", align 1
@.str.20 = private unnamed_addr constant [4 x i8] c"B: \00", align 1
@.str.21 = private unnamed_addr constant [12 x i8] c"(%+5.1f %%)\00", align 1
@.str.22 = private unnamed_addr constant [14 x i8] c"%8.2f sec    \00", align 1
@.str.23 = private unnamed_addr constant [3 x i8] c"%c\00", align 1

; Function Attrs: inlinehint nounwind uwtable
define internal i64 @Abc_Clock() #2 {
  %1 = alloca i64, align 8
  %2 = alloca %struct.timespec, align 8
  %3 = alloca i32, align 4
  %4 = alloca i64, align 8
  call void @llvm.lifetime.start.p0(i64 16, ptr %2) #12
  %5 = call i32 @clock_gettime(i32 noundef 1, ptr noundef %2) #12
  %6 = icmp slt i32 %5, 0
  br i1 %6, label %7, label %8

7:                                                ; preds = %0
  store i64 -1, ptr %1, align 8
  store i32 1, ptr %3, align 4
  br label %19

8:                                                ; preds = %0
  call void @llvm.lifetime.start.p0(i64 8, ptr %4) #12
  %9 = getelementptr inbounds nuw %struct.timespec, ptr %2, i32 0, i32 0
  %10 = load i64, ptr %9, align 8, !tbaa !204
  %11 = mul nsw i64 %10, 1000000
  store i64 %11, ptr %4, align 8, !tbaa !162
  %12 = getelementptr inbounds nuw %struct.timespec, ptr %2, i32 0, i32 1
  %13 = load i64, ptr %12, align 8, !tbaa !206
  %14 = mul nsw i64 %13, 1000000
  %15 = sdiv i64 %14, 1000000000
  %16 = load i64, ptr %4, align 8, !tbaa !162
  %17 = add nsw i64 %16, %15
  store i64 %17, ptr %4, align 8, !tbaa !162
  %18 = load i64, ptr %4, align 8, !tbaa !162
  store i64 %18, ptr %1, align 8
  store i32 1, ptr %3, align 4
  call void @llvm.lifetime.end.p0(i64 8, ptr %4) #12
  br label %19

19:                                               ; preds = %8, %7
  call void @llvm.lifetime.end.p0(i64 16, ptr %2) #12
  %20 = load i64, ptr %1, align 8
  ret i64 %20
}

; Function Attrs: nounwind uwtable
define void @Abc_SclUpsizePrint(ptr noundef %0, i32 noundef %1, i32 noundef %2, i32 noundef %3, i32 noundef %4, i32 noundef %5, i32 noundef %6, i32 noundef %7) #0 {
  %9 = alloca ptr, align 8
  %10 = alloca i32, align 4
  %11 = alloca i32, align 4
  %12 = alloca i32, align 4
  %13 = alloca i32, align 4
  %14 = alloca i32, align 4
  %15 = alloca i32, align 4
  %16 = alloca i32, align 4
  store ptr %0, ptr %9, align 8, !tbaa !50
  store i32 %1, ptr %10, align 4, !tbaa !10
  store i32 %2, ptr %11, align 4, !tbaa !10
  store i32 %3, ptr %12, align 4, !tbaa !10
  store i32 %4, ptr %13, align 4, !tbaa !10
  store i32 %5, ptr %14, align 4, !tbaa !10
  store i32 %6, ptr %15, align 4, !tbaa !10
  store i32 %7, ptr %16, align 4, !tbaa !10
  %17 = load i32, ptr %10, align 4, !tbaa !10
  %18 = call i32 (ptr, ...) @printf(ptr noundef @.str.9, i32 noundef %17)
  %19 = load i32, ptr %11, align 4, !tbaa !10
  %20 = call i32 (ptr, ...) @printf(ptr noundef @.str.10, i32 noundef %19)
  %21 = load i32, ptr %12, align 4, !tbaa !10
  %22 = call i32 (ptr, ...) @printf(ptr noundef @.str.11, i32 noundef %21)
  %23 = load i32, ptr %13, align 4, !tbaa !10
  %24 = call i32 (ptr, ...) @printf(ptr noundef @.str.12, i32 noundef %23)
  %25 = load i32, ptr %14, align 4, !tbaa !10
  %26 = call i32 (ptr, ...) @printf(ptr noundef @.str.13, i32 noundef %25)
  %27 = load i32, ptr %15, align 4, !tbaa !10
  %28 = call i32 (ptr, ...) @printf(ptr noundef @.str.14, i32 noundef %27)
  %29 = call i32 (ptr, ...) @printf(ptr noundef @.str.15)
  %30 = load ptr, ptr %9, align 8, !tbaa !50
  %31 = getelementptr inbounds nuw %struct.SC_Man_, ptr %30, i32 0, i32 32
  %32 = load float, ptr %31, align 4, !tbaa !114
  %33 = fpext float %32 to double
  %34 = call i32 (ptr, ...) @printf(ptr noundef @.str.16, double noundef %33)
  %35 = load ptr, ptr %9, align 8, !tbaa !50
  %36 = getelementptr inbounds nuw %struct.SC_Man_, ptr %35, i32 0, i32 32
  %37 = load float, ptr %36, align 4, !tbaa !114
  %38 = load ptr, ptr %9, align 8, !tbaa !50
  %39 = getelementptr inbounds nuw %struct.SC_Man_, ptr %38, i32 0, i32 34
  %40 = load float, ptr %39, align 4, !tbaa !152
  %41 = fsub float %37, %40
  %42 = fpext float %41 to double
  %43 = fmul double 1.000000e+02, %42
  %44 = load ptr, ptr %9, align 8, !tbaa !50
  %45 = getelementptr inbounds nuw %struct.SC_Man_, ptr %44, i32 0, i32 34
  %46 = load float, ptr %45, align 4, !tbaa !152
  %47 = fpext float %46 to double
  %48 = fdiv double %43, %47
  %49 = call i32 (ptr, ...) @printf(ptr noundef @.str.17, double noundef %48)
  %50 = call i32 (ptr, ...) @printf(ptr noundef @.str.18)
  %51 = load ptr, ptr %9, align 8, !tbaa !50
  %52 = getelementptr inbounds nuw %struct.SC_Man_, ptr %51, i32 0, i32 33
  %53 = load float, ptr %52, align 8, !tbaa !69
  %54 = fpext float %53 to double
  %55 = call i32 (ptr, ...) @printf(ptr noundef @.str.19, double noundef %54)
  %56 = load ptr, ptr %9, align 8, !tbaa !50
  %57 = getelementptr inbounds nuw %struct.SC_Man_, ptr %56, i32 0, i32 33
  %58 = load float, ptr %57, align 8, !tbaa !69
  %59 = load ptr, ptr %9, align 8, !tbaa !50
  %60 = getelementptr inbounds nuw %struct.SC_Man_, ptr %59, i32 0, i32 35
  %61 = load float, ptr %60, align 8, !tbaa !153
  %62 = fsub float %58, %61
  %63 = fpext float %62 to double
  %64 = fmul double 1.000000e+02, %63
  %65 = load ptr, ptr %9, align 8, !tbaa !50
  %66 = getelementptr inbounds nuw %struct.SC_Man_, ptr %65, i32 0, i32 35
  %67 = load float, ptr %66, align 8, !tbaa !153
  %68 = fpext float %67 to double
  %69 = fdiv double %64, %68
  %70 = call i32 (ptr, ...) @printf(ptr noundef @.str.17, double noundef %69)
  %71 = call i32 (ptr, ...) @printf(ptr noundef @.str.20)
  %72 = load ptr, ptr %9, align 8, !tbaa !50
  %73 = getelementptr inbounds nuw %struct.SC_Man_, ptr %72, i32 0, i32 36
  %74 = load float, ptr %73, align 4, !tbaa !154
  %75 = fpext float %74 to double
  %76 = call i32 (ptr, ...) @printf(ptr noundef @.str.19, double noundef %75)
  %77 = load ptr, ptr %9, align 8, !tbaa !50
  %78 = getelementptr inbounds nuw %struct.SC_Man_, ptr %77, i32 0, i32 36
  %79 = load float, ptr %78, align 4, !tbaa !154
  %80 = load ptr, ptr %9, align 8, !tbaa !50
  %81 = getelementptr inbounds nuw %struct.SC_Man_, ptr %80, i32 0, i32 35
  %82 = load float, ptr %81, align 8, !tbaa !153
  %83 = fsub float %79, %82
  %84 = fpext float %83 to double
  %85 = fmul double 1.000000e+02, %84
  %86 = load ptr, ptr %9, align 8, !tbaa !50
  %87 = getelementptr inbounds nuw %struct.SC_Man_, ptr %86, i32 0, i32 35
  %88 = load float, ptr %87, align 8, !tbaa !153
  %89 = fpext float %88 to double
  %90 = fdiv double %85, %89
  %91 = call i32 (ptr, ...) @printf(ptr noundef @.str.21, double noundef %90)
  %92 = call i64 @Abc_Clock()
  %93 = load ptr, ptr %9, align 8, !tbaa !50
  %94 = getelementptr inbounds nuw %struct.SC_Man_, ptr %93, i32 0, i32 38
  %95 = load i64, ptr %94, align 8, !tbaa !155
  %96 = sub nsw i64 %92, %95
  %97 = sitofp i64 %96 to double
  %98 = fmul double 1.000000e+00, %97
  %99 = fdiv double %98, 1.000000e+06
  %100 = call i32 (ptr, ...) @printf(ptr noundef @.str.22, double noundef %99)
  %101 = load i32, ptr %16, align 4, !tbaa !10
  %102 = icmp ne i32 %101, 0
  %103 = select i1 %102, i32 10, i32 13
  %104 = call i32 (ptr, ...) @printf(ptr noundef @.str.23, i32 noundef %103)
  ret void
}