; Function Attrs: nounwind uwtable
define void @Abc_SclUpsizePrint(ptr noundef readonly captures(none) %0, i32 noundef %1, i32 noundef %2, i32 noundef %3, i32 noundef %4, i32 noundef %5, i32 noundef %6, i32 noundef %7) local_unnamed_addr #0 {
  %9 = alloca %struct.timespec, align 8
  %10 = tail call i32 (ptr, ...) @printf(ptr noundef nonnull dereferenceable(1) @.str.9, i32 noundef %1)
  %11 = tail call i32 (ptr, ...) @printf(ptr noundef nonnull dereferenceable(1) @.str.10, i32 noundef %2)
  %12 = tail call i32 (ptr, ...) @printf(ptr noundef nonnull dereferenceable(1) @.str.11, i32 noundef %3)
  %13 = tail call i32 (ptr, ...) @printf(ptr noundef nonnull dereferenceable(1) @.str.12, i32 noundef %4)
  %14 = tail call i32 (ptr, ...) @printf(ptr noundef nonnull dereferenceable(1) @.str.13, i32 noundef %5)
  %15 = tail call i32 (ptr, ...) @printf(ptr noundef nonnull dereferenceable(1) @.str.14, i32 noundef %6)
  %16 = tail call i32 (ptr, ...) @printf(ptr noundef nonnull dereferenceable(1) @.str.15)
  %17 = getelementptr inbounds nuw i8, ptr %0, i64 236
  %18 = load float, ptr %17, align 4, !tbaa !125
  %19 = fpext float %18 to double
  %20 = tail call i32 (ptr, ...) @printf(ptr noundef nonnull dereferenceable(1) @.str.16, double noundef %19)
  %21 = load float, ptr %17, align 4, !tbaa !125
  %22 = getelementptr inbounds nuw i8, ptr %0, i64 244
  %23 = load float, ptr %22, align 4, !tbaa !145
  %24 = fsub float %21, %23
  %25 = fpext float %24 to double
  %26 = fmul double %25, 1.000000e+02
  %27 = fpext float %23 to double
  %28 = fdiv double %26, %27
  %29 = tail call i32 (ptr, ...) @printf(ptr noundef nonnull dereferenceable(1) @.str.17, double noundef %28)
  %30 = tail call i32 (ptr, ...) @printf(ptr noundef nonnull dereferenceable(1) @.str.18)
  %31 = getelementptr inbounds nuw i8, ptr %0, i64 240
  %32 = load float, ptr %31, align 8, !tbaa !70
  %33 = fpext float %32 to double
  %34 = tail call i32 (ptr, ...) @printf(ptr noundef nonnull dereferenceable(1) @.str.19, double noundef %33)
  %35 = load float, ptr %31, align 8, !tbaa !70
  %36 = getelementptr inbounds nuw i8, ptr %0, i64 248
  %37 = load float, ptr %36, align 8, !tbaa !146
  %38 = fsub float %35, %37
  %39 = fpext float %38 to double
  %40 = fmul double %39, 1.000000e+02
  %41 = fpext float %37 to double
  %42 = fdiv double %40, %41
  %43 = tail call i32 (ptr, ...) @printf(ptr noundef nonnull dereferenceable(1) @.str.17, double noundef %42)
  %44 = tail call i32 (ptr, ...) @printf(ptr noundef nonnull dereferenceable(1) @.str.20)
  %45 = getelementptr inbounds nuw i8, ptr %0, i64 252
  %46 = load float, ptr %45, align 4, !tbaa !147
  %47 = fpext float %46 to double
  %48 = tail call i32 (ptr, ...) @printf(ptr noundef nonnull dereferenceable(1) @.str.19, double noundef %47)
  %49 = load float, ptr %45, align 4, !tbaa !147
  %50 = load float, ptr %36, align 8, !tbaa !146
  %51 = fsub float %49, %50
  %52 = fpext float %51 to double
  %53 = fmul double %52, 1.000000e+02
  %54 = fpext float %50 to double
  %55 = fdiv double %53, %54
  %56 = tail call i32 (ptr, ...) @printf(ptr noundef nonnull dereferenceable(1) @.str.21, double noundef %55)
  call void @llvm.lifetime.start.p0(i64 16, ptr nonnull %9) #27
  %57 = call i32 @clock_gettime(i32 noundef 1, ptr noundef nonnull %9) #27
  %58 = icmp slt i32 %57, 0
  br i1 %58, label %Abc_Clock.exit, label %59

59:                                               ; preds = %8
  %60 = load i64, ptr %9, align 8, !tbaa !148
  %61 = mul nsw i64 %60, 1000000
  %62 = getelementptr inbounds nuw i8, ptr %9, i64 8
  %63 = load i64, ptr %62, align 8, !tbaa !150
  %64 = sdiv i64 %63, 1000
  %65 = add nsw i64 %64, %61
  br label %Abc_Clock.exit

Abc_Clock.exit:                                   ; preds = %8, %59
  %.0.i = phi i64 [ %65, %59 ], [ -1, %8 ]
  call void @llvm.lifetime.end.p0(i64 16, ptr nonnull %9) #27
  %66 = getelementptr inbounds nuw i8, ptr %0, i64 264
  %67 = load i64, ptr %66, align 8, !tbaa !151
  %68 = sub nsw i64 %.0.i, %67
  %69 = sitofp i64 %68 to double
  %70 = fdiv double %69, 1.000000e+06
  %71 = call i32 (ptr, ...) @printf(ptr noundef nonnull dereferenceable(1) @.str.22, double noundef %70)
  %.not = icmp eq i32 %7, 0
  %72 = select i1 %.not, i32 13, i32 10
  %putchar = call i32 @putchar(i32 %72)
  ret void
}